target datalayout = "e-m:e-p270:32:32-p271:32:32-p272:64:64-i64:64-i128:128-f80:128-n8:16:32:64-S128"
target triple = "x86_64-pc-linux-gnu"

%struct.Hacl_Hash_Blake2b_index_s = type { i8, i8, i8 }
%struct.Hacl_Hash_Blake2b_block_state_t_s = type { i8, i8, i8, %struct.K____uint64_t___uint64_t__s }
%struct.K____uint64_t___uint64_t__s = type { ptr, ptr }
%struct.Hacl_Hash_Blake2b_state_t_s = type { %struct.Hacl_Hash_Blake2b_block_state_t_s, ptr, i64 }

; Function Attrs: nounwind uwtable
define hidden ptr @python_hashlib_Hacl_Hash_Blake2b_copy(ptr noundef %0) #0 {
  %2 = alloca ptr, align 8
  %3 = alloca %struct.Hacl_Hash_Blake2b_state_t_s, align 8
  %4 = alloca %struct.Hacl_Hash_Blake2b_block_state_t_s, align 8
  %5 = alloca ptr, align 8
  %6 = alloca i64, align 8
  %7 = alloca i8, align 1
  %8 = alloca i8, align 1
  %9 = alloca i8, align 1
  %10 = alloca %struct.Hacl_Hash_Blake2b_index_s, align 1
  %11 = alloca ptr, align 8
  %12 = alloca ptr, align 8
  %13 = alloca ptr, align 8
  %14 = alloca %struct.Hacl_Hash_Blake2b_block_state_t_s, align 8
  %15 = alloca ptr, align 8
  %16 = alloca ptr, align 8
  %17 = alloca %struct.Hacl_Hash_Blake2b_state_t_s, align 8
  %18 = alloca ptr, align 8
  store ptr %0, ptr %2, align 8, !tbaa !56
  call void @llvm.lifetime.start.p0(i64 40, ptr %3) #9
  %19 = load ptr, ptr %2, align 8, !tbaa !56
  call void @llvm.memcpy.p0.p0.i64(ptr align 8 %3, ptr align 8 %19, i64 40, i1 false), !tbaa.struct !58
  call void @llvm.lifetime.start.p0(i64 24, ptr %4) #9
  %20 = getelementptr inbounds nuw %struct.Hacl_Hash_Blake2b_state_t_s, ptr %3, i32 0, i32 0
  call void @llvm.memcpy.p0.p0.i64(ptr align 8 %4, ptr align 8 %20, i64 24, i1 false), !tbaa.struct !52
  call void @llvm.lifetime.start.p0(i64 8, ptr %5) #9
  %21 = getelementptr inbounds nuw %struct.Hacl_Hash_Blake2b_state_t_s, ptr %3, i32 0, i32 1
  %22 = load ptr, ptr %21, align 8, !tbaa !53
  store ptr %22, ptr %5, align 8, !tbaa !25
  call void @llvm.lifetime.start.p0(i64 8, ptr %6) #9
  %23 = getelementptr inbounds nuw %struct.Hacl_Hash_Blake2b_state_t_s, ptr %3, i32 0, i32 2
  %24 = load i64, ptr %23, align 8, !tbaa !55
  store i64 %24, ptr %6, align 8, !tbaa !23
  call void @llvm.lifetime.start.p0(i64 1, ptr %7) #9
  %25 = getelementptr inbounds nuw %struct.Hacl_Hash_Blake2b_block_state_t_s, ptr %4, i32 0, i32 2
  %26 = load i8, ptr %25, align 2, !tbaa !49, !range !33, !noundef !34
  %27 = trunc i8 %26 to i1
  %28 = zext i1 %27 to i8
  store i8 %28, ptr %7, align 1, !tbaa !31
  call void @llvm.lifetime.start.p0(i64 1, ptr %8) #9
  %29 = getelementptr inbounds nuw %struct.Hacl_Hash_Blake2b_block_state_t_s, ptr %4, i32 0, i32 1
  %30 = load i8, ptr %29, align 1, !tbaa !48
  store i8 %30, ptr %8, align 1, !tbaa !24
  call void @llvm.lifetime.start.p0(i64 1, ptr %9) #9
  %31 = getelementptr inbounds nuw %struct.Hacl_Hash_Blake2b_block_state_t_s, ptr %4, i32 0, i32 0
  %32 = load i8, ptr %31, align 8, !tbaa !45
  store i8 %32, ptr %9, align 1, !tbaa !24
  call void @llvm.lifetime.start.p0(i64 3, ptr %10) #9
  %33 = getelementptr inbounds nuw %struct.Hacl_Hash_Blake2b_index_s, ptr %10, i32 0, i32 0
  %34 = load i8, ptr %9, align 1, !tbaa !24
  store i8 %34, ptr %33, align 1, !tbaa !38
  %35 = getelementptr inbounds nuw %struct.Hacl_Hash_Blake2b_index_s, ptr %10, i32 0, i32 1
  %36 = load i8, ptr %8, align 1, !tbaa !24
  store i8 %36, ptr %35, align 1, !tbaa !40
  %37 = getelementptr inbounds nuw %struct.Hacl_Hash_Blake2b_index_s, ptr %10, i32 0, i32 2
  %38 = load i8, ptr %7, align 1, !tbaa !31, !range !33, !noundef !34
  %39 = trunc i8 %38 to i1
  %40 = zext i1 %39 to i8
  store i8 %40, ptr %37, align 1, !tbaa !41
  call void @llvm.lifetime.start.p0(i64 8, ptr %11) #9
  %41 = call noalias ptr @calloc(i64 noundef 128, i64 noundef 1) #10
  store ptr %41, ptr %11, align 8, !tbaa !25
  %42 = load ptr, ptr %11, align 8, !tbaa !25
  %43 = load ptr, ptr %5, align 8, !tbaa !25
  call void @llvm.memcpy.p0.p0.i64(ptr align 1 %42, ptr align 1 %43, i64 128, i1 false)
  call void @llvm.lifetime.start.p0(i64 8, ptr %12) #9
  %44 = call noalias ptr @calloc(i64 noundef 16, i64 noundef 8) #10
  store ptr %44, ptr %12, align 8, !tbaa !3
  call void @llvm.lifetime.start.p0(i64 8, ptr %13) #9
  %45 = call noalias ptr @calloc(i64 noundef 16, i64 noundef 8) #10
  store ptr %45, ptr %13, align 8, !tbaa !3
  call void @llvm.lifetime.start.p0(i64 24, ptr %14) #9
  %46 = getelementptr inbounds nuw %struct.Hacl_Hash_Blake2b_block_state_t_s, ptr %14, i32 0, i32 0
  %47 = getelementptr inbounds nuw %struct.Hacl_Hash_Blake2b_index_s, ptr %10, i32 0, i32 0
  %48 = load i8, ptr %47, align 1, !tbaa !38
  store i8 %48, ptr %46, align 8, !tbaa !45
  %49 = getelementptr inbounds nuw %struct.Hacl_Hash_Blake2b_block_state_t_s, ptr %14, i32 0, i32 1
  %50 = getelementptr inbounds nuw %struct.Hacl_Hash_Blake2b_index_s, ptr %10, i32 0, i32 1
  %51 = load i8, ptr %50, align 1, !tbaa !40
  store i8 %51, ptr %49, align 1, !tbaa !48
  %52 = getelementptr inbounds nuw %struct.Hacl_Hash_Blake2b_block_state_t_s, ptr %14, i32 0, i32 2
  %53 = getelementptr inbounds nuw %struct.Hacl_Hash_Blake2b_index_s, ptr %10, i32 0, i32 2
  %54 = load i8, ptr %53, align 1, !tbaa !41, !range !33, !noundef !34
  %55 = trunc i8 %54 to i1
  %56 = zext i1 %55 to i8
  store i8 %56, ptr %52, align 2, !tbaa !49
  %57 = getelementptr i8, ptr %14, i64 3
  call void @llvm.memset.p0.i64(ptr align 1 %57, i8 0, i64 5, i1 false)
  %58 = getelementptr inbounds nuw %struct.Hacl_Hash_Blake2b_block_state_t_s, ptr %14, i32 0, i32 3
  %59 = getelementptr inbounds nuw %struct.K____uint64_t___uint64_t__s, ptr %58, i32 0, i32 0
  %60 = load ptr, ptr %12, align 8, !tbaa !3
  store ptr %60, ptr %59, align 8, !tbaa !50
  %61 = getelementptr inbounds nuw %struct.K____uint64_t___uint64_t__s, ptr %58, i32 0, i32 1
  %62 = load ptr, ptr %13, align 8, !tbaa !3
  store ptr %62, ptr %61, align 8, !tbaa !51
  call void @llvm.lifetime.start.p0(i64 8, ptr %15) #9
  %63 = getelementptr inbounds nuw %struct.Hacl_Hash_Blake2b_block_state_t_s, ptr %4, i32 0, i32 3
  %64 = getelementptr inbounds nuw %struct.K____uint64_t___uint64_t__s, ptr %63, i32 0, i32 1
  %65 = load ptr, ptr %64, align 8, !tbaa !59
  store ptr %65, ptr %15, align 8, !tbaa !3
  call void @llvm.lifetime.start.p0(i64 8, ptr %16) #9
  %66 = getelementptr inbounds nuw %struct.Hacl_Hash_Blake2b_block_state_t_s, ptr %14, i32 0, i32 3
  %67 = getelementptr inbounds nuw %struct.K____uint64_t___uint64_t__s, ptr %66, i32 0, i32 1
  %68 = load ptr, ptr %67, align 8, !tbaa !59
  store ptr %68, ptr %16, align 8, !tbaa !3
  %69 = load ptr, ptr %16, align 8, !tbaa !3
  %70 = load ptr, ptr %15, align 8, !tbaa !3
  call void @llvm.memcpy.p0.p0.i64(ptr align 8 %69, ptr align 8 %70, i64 128, i1 false)
  call void @llvm.lifetime.start.p0(i64 40, ptr %17) #9
  %71 = getelementptr inbounds nuw %struct.Hacl_Hash_Blake2b_state_t_s, ptr %17, i32 0, i32 0
  call void @llvm.memcpy.p0.p0.i64(ptr align 8 %71, ptr align 8 %14, i64 24, i1 false), !tbaa.struct !52
  %72 = getelementptr inbounds nuw %struct.Hacl_Hash_Blake2b_state_t_s, ptr %17, i32 0, i32 1
  %73 = load ptr, ptr %11, align 8, !tbaa !25
  store ptr %73, ptr %72, align 8, !tbaa !53
  %74 = getelementptr inbounds nuw %struct.Hacl_Hash_Blake2b_state_t_s, ptr %17, i32 0, i32 2
  %75 = load i64, ptr %6, align 8, !tbaa !23
  store i64 %75, ptr %74, align 8, !tbaa !55
  call void @llvm.lifetime.start.p0(i64 8, ptr %18) #9
  %76 = call noalias ptr @malloc(i64 noundef 40) #11
  store ptr %76, ptr %18, align 8, !tbaa !56
  %77 = load ptr, ptr %18, align 8, !tbaa !56
  %78 = getelementptr %struct.Hacl_Hash_Blake2b_state_t_s, ptr %77, i64 0
  call void @llvm.memcpy.p0.p0.i64(ptr align 8 %78, ptr align 8 %17, i64 40, i1 false), !tbaa.struct !58
  %79 = load ptr, ptr %18, align 8, !tbaa !56
  call void @llvm.lifetime.end.p0(i64 8, ptr %18) #9
  call void @llvm.lifetime.end.p0(i64 40, ptr %17) #9
  call void @llvm.lifetime.end.p0(i64 8, ptr %16) #9
  call void @llvm.lifetime.end.p0(i64 8, ptr %15) #9
  call void @llvm.lifetime.end.p0(i64 24, ptr %14) #9
  call void @llvm.lifetime.end.p0(i64 8, ptr %13) #9
  call void @llvm.lifetime.end.p0(i64 8, ptr %12) #9
  call void @llvm.lifetime.end.p0(i64 8, ptr %11) #9
  call void @llvm.lifetime.end.p0(i64 3, ptr %10) #9
  call void @llvm.lifetime.end.p0(i64 1, ptr %9) #9
  call void @llvm.lifetime.end.p0(i64 1, ptr %8) #9
  call void @llvm.lifetime.end.p0(i64 1, ptr %7) #9
  call void @llvm.lifetime.end.p0(i64 8, ptr %6) #9
  call void @llvm.lifetime.end.p0(i64 8, ptr %5) #9
  call void @llvm.lifetime.end.p0(i64 24, ptr %4) #9
  call void @llvm.lifetime.end.p0(i64 40, ptr %3) #9
  ret ptr %79
}